ARM GAS  C:\Users\Haythem\AppData\Local\Temp\ccwgFMzW.s 			page 1


   1              		.syntax unified
   2              		.cpu cortex-m3
   3              		.fpu softvfp
   4              		.eabi_attribute 20, 1
   5              		.eabi_attribute 21, 1
   6              		.eabi_attribute 23, 3
   7              		.eabi_attribute 24, 1
   8              		.eabi_attribute 25, 1
   9              		.eabi_attribute 26, 1
  10              		.eabi_attribute 30, 1
  11              		.eabi_attribute 34, 1
  12              		.eabi_attribute 18, 4
  13              		.thumb
  14              		.syntax unified
  15              		.file	"main.c"
  16              		.text
  17              	.Ltext0:
  18              		.cfi_sections	.debug_frame
  19              		.section	.text.step_feeder_motor,"ax",%progbits
  20              		.align	2
  21              		.global	step_feeder_motor
  22              		.thumb
  23              		.thumb_func
  24              		.type	step_feeder_motor, %function
  25              	step_feeder_motor:
  26              	.LFB63:
  27              		.file 1 "main.c"
   1:main.c        **** #include "project.h"
   2:main.c        **** 
   3:main.c        **** #define STEP_ANGLE 1.8          // value of the step angle from the stepper motor
   4:main.c        **** #define PERIOD 2                // desired period for a full rotation of stepper motor shaft
   5:main.c        **** #define SERVO_CUT 1750          // PWM value to put servomotor in position to cut wire
   6:main.c        **** #define SERVO_STRIP 2600        // PWM value to put servomotor in position to strip wire
   7:main.c        **** 
   8:main.c        **** int servo_position = SERVO_CUT;
   9:main.c        **** 
  10:main.c        **** /* 
  11:main.c        **** ** Moves the feeder motor by a single step.
  12:main.c        **** ** The sequence of control signals for 4 control wires is as follows:
  13:main.c        **** **
  14:main.c        **** ** Step P1  P2  P3  P4
  15:main.c        **** **  1   1   0   1   0
  16:main.c        **** **  2   0   1   1   0
  17:main.c        **** **  3   0   1   0   1
  18:main.c        **** **  4   1   0   0   1
  19:main.c        **** ** (inspired by Arduino stepper motor library
  20:main.c        **** ** https://github.com/arduino-libraries/Stepper/blob/master/src/Stepper.cpp)
  21:main.c        **** */
  22:main.c        **** void step_feeder_motor(int step) {
  28              		.loc 1 22 0
  29              		.cfi_startproc
  30              		@ args = 0, pretend = 0, frame = 0
  31              		@ frame_needed = 0, uses_anonymous_args = 0
  32              	.LVL0:
  33 0000 08B5     		push	{r3, lr}
  34              		.cfi_def_cfa_offset 8
  35              		.cfi_offset 3, -8
ARM GAS  C:\Users\Haythem\AppData\Local\Temp\ccwgFMzW.s 			page 2


  36              		.cfi_offset 14, -4
  23:main.c        ****     switch (step) {
  37              		.loc 1 23 0
  38 0002 0328     		cmp	r0, #3
  39 0004 36D8     		bhi	.L1
  40 0006 DFE800F0 		tbb	[pc, r0]
  41              	.L4:
  42 000a 02       		.byte	(.L3-.L4)/2
  43 000b 0F       		.byte	(.L5-.L4)/2
  44 000c 1C       		.byte	(.L6-.L4)/2
  45 000d 29       		.byte	(.L7-.L4)/2
  46              		.p2align 1
  47              	.L3:
  24:main.c        ****         case 0:
  25:main.c        ****             FeederPin1_Write(1);
  48              		.loc 1 25 0
  49 000e 0120     		movs	r0, #1
  50              	.LVL1:
  51 0010 FFF7FEFF 		bl	FeederPin1_Write
  52              	.LVL2:
  26:main.c        ****             FeederPin2_Write(0);
  53              		.loc 1 26 0
  54 0014 0020     		movs	r0, #0
  55 0016 FFF7FEFF 		bl	FeederPin2_Write
  56              	.LVL3:
  27:main.c        ****             FeederPin3_Write(1);
  57              		.loc 1 27 0
  58 001a 0120     		movs	r0, #1
  59 001c FFF7FEFF 		bl	FeederPin3_Write
  60              	.LVL4:
  28:main.c        ****             FeederPin4_Write(0);
  61              		.loc 1 28 0
  62 0020 0020     		movs	r0, #0
  63 0022 FFF7FEFF 		bl	FeederPin4_Write
  64              	.LVL5:
  29:main.c        ****             break;
  65              		.loc 1 29 0
  66 0026 08BD     		pop	{r3, pc}
  67              	.LVL6:
  68              	.L5:
  30:main.c        ****         case 1:
  31:main.c        ****             FeederPin1_Write(1);
  69              		.loc 1 31 0
  70 0028 0120     		movs	r0, #1
  71              	.LVL7:
  72 002a FFF7FEFF 		bl	FeederPin1_Write
  73              	.LVL8:
  32:main.c        ****             FeederPin2_Write(0);
  74              		.loc 1 32 0
  75 002e 0020     		movs	r0, #0
  76 0030 FFF7FEFF 		bl	FeederPin2_Write
  77              	.LVL9:
  33:main.c        ****             FeederPin3_Write(0);
  78              		.loc 1 33 0
  79 0034 0020     		movs	r0, #0
  80 0036 FFF7FEFF 		bl	FeederPin3_Write
  81              	.LVL10:
ARM GAS  C:\Users\Haythem\AppData\Local\Temp\ccwgFMzW.s 			page 3


  34:main.c        ****             FeederPin4_Write(1);
  82              		.loc 1 34 0
  83 003a 0120     		movs	r0, #1
  84 003c FFF7FEFF 		bl	FeederPin4_Write
  85              	.LVL11:
  35:main.c        ****             break;
  86              		.loc 1 35 0
  87 0040 08BD     		pop	{r3, pc}
  88              	.LVL12:
  89              	.L6:
  36:main.c        ****         case 2:
  37:main.c        ****             FeederPin1_Write(0);
  90              		.loc 1 37 0
  91 0042 0020     		movs	r0, #0
  92              	.LVL13:
  93 0044 FFF7FEFF 		bl	FeederPin1_Write
  94              	.LVL14:
  38:main.c        ****             FeederPin2_Write(1);
  95              		.loc 1 38 0
  96 0048 0120     		movs	r0, #1
  97 004a FFF7FEFF 		bl	FeederPin2_Write
  98              	.LVL15:
  39:main.c        ****             FeederPin3_Write(0);
  99              		.loc 1 39 0
 100 004e 0020     		movs	r0, #0
 101 0050 FFF7FEFF 		bl	FeederPin3_Write
 102              	.LVL16:
  40:main.c        ****             FeederPin4_Write(1);
 103              		.loc 1 40 0
 104 0054 0120     		movs	r0, #1
 105 0056 FFF7FEFF 		bl	FeederPin4_Write
 106              	.LVL17:
  41:main.c        ****             break;
 107              		.loc 1 41 0
 108 005a 08BD     		pop	{r3, pc}
 109              	.LVL18:
 110              	.L7:
  42:main.c        ****         case 3:
  43:main.c        ****             FeederPin1_Write(0);
 111              		.loc 1 43 0
 112 005c 0020     		movs	r0, #0
 113              	.LVL19:
 114 005e FFF7FEFF 		bl	FeederPin1_Write
 115              	.LVL20:
  44:main.c        ****             FeederPin2_Write(1);
 116              		.loc 1 44 0
 117 0062 0120     		movs	r0, #1
 118 0064 FFF7FEFF 		bl	FeederPin2_Write
 119              	.LVL21:
  45:main.c        ****             FeederPin3_Write(1);
 120              		.loc 1 45 0
 121 0068 0120     		movs	r0, #1
 122 006a FFF7FEFF 		bl	FeederPin3_Write
 123              	.LVL22:
  46:main.c        ****             FeederPin4_Write(0);
 124              		.loc 1 46 0
 125 006e 0020     		movs	r0, #0
ARM GAS  C:\Users\Haythem\AppData\Local\Temp\ccwgFMzW.s 			page 4


 126 0070 FFF7FEFF 		bl	FeederPin4_Write
 127              	.LVL23:
 128              	.L1:
 129 0074 08BD     		pop	{r3, pc}
 130              		.cfi_endproc
 131              	.LFE63:
 132              		.size	step_feeder_motor, .-step_feeder_motor
 133 0076 00BF     		.section	.text.feeder_motor,"ax",%progbits
 134              		.align	2
 135              		.global	feeder_motor
 136              		.thumb
 137              		.thumb_func
 138              		.type	feeder_motor, %function
 139              	feeder_motor:
 140              	.LFB64:
  47:main.c        ****             break;
  48:main.c        ****     }
  49:main.c        **** }
  50:main.c        **** 
  51:main.c        **** /* 
  52:main.c        **** ** Moves the feeder motor by the specified number of steps
  53:main.c        **** ** This method uses a timer to create a big enough delay between steps
  54:main.c        **** ** The timer has a 1 kHz frequency; by using counters, this allows to
  55:main.c        **** ** modulate the frequency as wanted. By default, the frequency is 100 Hz.
  56:main.c        **** */
  57:main.c        **** void feeder_motor(int steps_to_move) {
 141              		.loc 1 57 0
 142              		.cfi_startproc
 143              		@ args = 0, pretend = 0, frame = 0
 144              		@ frame_needed = 0, uses_anonymous_args = 0
 145              	.LVL24:
 146 0000 70B5     		push	{r4, r5, r6, lr}
 147              		.cfi_def_cfa_offset 16
 148              		.cfi_offset 4, -16
 149              		.cfi_offset 5, -12
 150              		.cfi_offset 6, -8
 151              		.cfi_offset 14, -4
 152 0002 0646     		mov	r6, r0
 153              	.LVL25:
  58:main.c        ****     int steps_left = steps_to_move;
 154              		.loc 1 58 0
 155 0004 0446     		mov	r4, r0
  59:main.c        ****     int counter = 0;
 156              		.loc 1 59 0
 157 0006 0025     		movs	r5, #0
  60:main.c        ****     while (steps_left > 0) {
 158              		.loc 1 60 0
 159 0008 13E0     		b	.L10
 160              	.LVL26:
 161              	.L13:
  61:main.c        ****         if ((StepperMotorTimer_STATUS_TC & StepperMotorTimer_ReadStatusRegister()) != 0) {
 162              		.loc 1 61 0
 163 000a FFF7FEFF 		bl	StepperMotorTimer_ReadStatusRegister
 164              	.LVL27:
 165 000e 10F0800F 		tst	r0, #128
 166 0012 0ED0     		beq	.L10
  62:main.c        ****             counter++;
ARM GAS  C:\Users\Haythem\AppData\Local\Temp\ccwgFMzW.s 			page 5


 167              		.loc 1 62 0
 168 0014 0135     		adds	r5, r5, #1
 169              	.LVL28:
  63:main.c        ****             if (counter == 5 * PERIOD) {
 170              		.loc 1 63 0
 171 0016 0A2D     		cmp	r5, #10
 172 0018 0BD1     		bne	.L10
  64:main.c        ****                 step_feeder_motor((steps_to_move - steps_left) % 4);
 173              		.loc 1 64 0
 174 001a 301B     		subs	r0, r6, r4
 175 001c 064B     		ldr	r3, .L15
 176 001e 1840     		ands	r0, r0, r3
 177 0020 03D5     		bpl	.L12
 178 0022 0138     		subs	r0, r0, #1
 179 0024 60F00300 		orn	r0, r0, #3
 180 0028 0130     		adds	r0, r0, #1
 181              	.L12:
 182 002a FFF7FEFF 		bl	step_feeder_motor
 183              	.LVL29:
  65:main.c        ****                 steps_left--;
 184              		.loc 1 65 0
 185 002e 013C     		subs	r4, r4, #1
 186              	.LVL30:
  66:main.c        ****                 counter = 0;
 187              		.loc 1 66 0
 188 0030 0025     		movs	r5, #0
 189              	.LVL31:
 190              	.L10:
  60:main.c        ****         if ((StepperMotorTimer_STATUS_TC & StepperMotorTimer_ReadStatusRegister()) != 0) {
 191              		.loc 1 60 0
 192 0032 002C     		cmp	r4, #0
 193 0034 E9DC     		bgt	.L13
  67:main.c        ****             }
  68:main.c        ****         }
  69:main.c        ****     }
  70:main.c        **** }
 194              		.loc 1 70 0
 195 0036 70BD     		pop	{r4, r5, r6, pc}
 196              	.LVL32:
 197              	.L16:
 198              		.align	2
 199              	.L15:
 200 0038 03000080 		.word	-2147483645
 201              		.cfi_endproc
 202              	.LFE64:
 203              		.size	feeder_motor, .-feeder_motor
 204              		.global	__aeabi_i2d
 205              		.global	__aeabi_dmul
 206              		.global	__aeabi_ddiv
 207              		.global	__aeabi_d2iz
 208              		.section	.text.turn_feeder_motor,"ax",%progbits
 209              		.align	2
 210              		.global	turn_feeder_motor
 211              		.thumb
 212              		.thumb_func
 213              		.type	turn_feeder_motor, %function
 214              	turn_feeder_motor:
ARM GAS  C:\Users\Haythem\AppData\Local\Temp\ccwgFMzW.s 			page 6


 215              	.LFB65:
  71:main.c        **** 
  72:main.c        **** /* 
  73:main.c        **** ** Moves the feeder motor by the specified length (in mm)
  74:main.c        **** ** by using the measured step angle.
  75:main.c        **** ** This was measured by testing and concluding that
  76:main.c        **** ** one rotation of the feeder motor yields 31 mm of wire.
  77:main.c        **** */
  78:main.c        **** void turn_feeder_motor(int length) {
 216              		.loc 1 78 0
 217              		.cfi_startproc
 218              		@ args = 0, pretend = 0, frame = 0
 219              		@ frame_needed = 0, uses_anonymous_args = 0
 220              	.LVL33:
 221 0000 08B5     		push	{r3, lr}
 222              		.cfi_def_cfa_offset 8
 223              		.cfi_offset 3, -8
 224              		.cfi_offset 14, -4
  79:main.c        ****     feeder_motor((360 / STEP_ANGLE) * length / 31);
 225              		.loc 1 79 0
 226 0002 FFF7FEFF 		bl	__aeabi_i2d
 227              	.LVL34:
 228 0006 0022     		movs	r2, #0
 229 0008 054B     		ldr	r3, .L19
 230 000a FFF7FEFF 		bl	__aeabi_dmul
 231              	.LVL35:
 232 000e 0022     		movs	r2, #0
 233 0010 044B     		ldr	r3, .L19+4
 234 0012 FFF7FEFF 		bl	__aeabi_ddiv
 235              	.LVL36:
 236 0016 FFF7FEFF 		bl	__aeabi_d2iz
 237              	.LVL37:
 238 001a FFF7FEFF 		bl	feeder_motor
 239              	.LVL38:
 240 001e 08BD     		pop	{r3, pc}
 241              	.L20:
 242              		.align	2
 243              	.L19:
 244 0020 00006940 		.word	1080623104
 245 0024 00003F40 		.word	1077870592
 246              		.cfi_endproc
 247              	.LFE65:
 248              		.size	turn_feeder_motor, .-turn_feeder_motor
 249              		.section	.text.step_cutter_motor,"ax",%progbits
 250              		.align	2
 251              		.global	step_cutter_motor
 252              		.thumb
 253              		.thumb_func
 254              		.type	step_cutter_motor, %function
 255              	step_cutter_motor:
 256              	.LFB66:
  80:main.c        **** }
  81:main.c        **** 
  82:main.c        **** /* 
  83:main.c        **** ** Moves the cutter motor by a single step.
  84:main.c        **** ** The sequence of control signals for 4 control wires is as follows:
  85:main.c        **** **
ARM GAS  C:\Users\Haythem\AppData\Local\Temp\ccwgFMzW.s 			page 7


  86:main.c        **** ** Step P1  P2  P3  P4
  87:main.c        **** **  1   1   0   1   0
  88:main.c        **** **  2   0   1   1   0
  89:main.c        **** **  3   0   1   0   1
  90:main.c        **** **  4   1   0   0   1
  91:main.c        **** ** (inspired by Arduino stepper motor library
  92:main.c        **** ** https://github.com/arduino-libraries/Stepper/blob/master/src/Stepper.cpp)
  93:main.c        **** */
  94:main.c        **** void step_cutter_motor(int step) {
 257              		.loc 1 94 0
 258              		.cfi_startproc
 259              		@ args = 0, pretend = 0, frame = 0
 260              		@ frame_needed = 0, uses_anonymous_args = 0
 261              	.LVL39:
 262 0000 08B5     		push	{r3, lr}
 263              		.cfi_def_cfa_offset 8
 264              		.cfi_offset 3, -8
 265              		.cfi_offset 14, -4
  95:main.c        ****     switch (step) {
 266              		.loc 1 95 0
 267 0002 0328     		cmp	r0, #3
 268 0004 36D8     		bhi	.L21
 269 0006 DFE800F0 		tbb	[pc, r0]
 270              	.L24:
 271 000a 02       		.byte	(.L23-.L24)/2
 272 000b 0F       		.byte	(.L25-.L24)/2
 273 000c 1C       		.byte	(.L26-.L24)/2
 274 000d 29       		.byte	(.L27-.L24)/2
 275              		.p2align 1
 276              	.L23:
  96:main.c        ****         case 0:
  97:main.c        ****             CutterPin1_Write(1);
 277              		.loc 1 97 0
 278 000e 0120     		movs	r0, #1
 279              	.LVL40:
 280 0010 FFF7FEFF 		bl	CutterPin1_Write
 281              	.LVL41:
  98:main.c        ****             CutterPin2_Write(0);
 282              		.loc 1 98 0
 283 0014 0020     		movs	r0, #0
 284 0016 FFF7FEFF 		bl	CutterPin2_Write
 285              	.LVL42:
  99:main.c        ****             CutterPin3_Write(1);
 286              		.loc 1 99 0
 287 001a 0120     		movs	r0, #1
 288 001c FFF7FEFF 		bl	CutterPin3_Write
 289              	.LVL43:
 100:main.c        ****             CutterPin4_Write(0);
 290              		.loc 1 100 0
 291 0020 0020     		movs	r0, #0
 292 0022 FFF7FEFF 		bl	CutterPin4_Write
 293              	.LVL44:
 101:main.c        ****             break;
 294              		.loc 1 101 0
 295 0026 08BD     		pop	{r3, pc}
 296              	.LVL45:
 297              	.L25:
ARM GAS  C:\Users\Haythem\AppData\Local\Temp\ccwgFMzW.s 			page 8


 102:main.c        ****         case 1:
 103:main.c        ****             CutterPin1_Write(1);
 298              		.loc 1 103 0
 299 0028 0120     		movs	r0, #1
 300              	.LVL46:
 301 002a FFF7FEFF 		bl	CutterPin1_Write
 302              	.LVL47:
 104:main.c        ****             CutterPin2_Write(0);
 303              		.loc 1 104 0
 304 002e 0020     		movs	r0, #0
 305 0030 FFF7FEFF 		bl	CutterPin2_Write
 306              	.LVL48:
 105:main.c        ****             CutterPin3_Write(0);
 307              		.loc 1 105 0
 308 0034 0020     		movs	r0, #0
 309 0036 FFF7FEFF 		bl	CutterPin3_Write
 310              	.LVL49:
 106:main.c        ****             CutterPin4_Write(1);
 311              		.loc 1 106 0
 312 003a 0120     		movs	r0, #1
 313 003c FFF7FEFF 		bl	CutterPin4_Write
 314              	.LVL50:
 107:main.c        ****             break;
 315              		.loc 1 107 0
 316 0040 08BD     		pop	{r3, pc}
 317              	.LVL51:
 318              	.L26:
 108:main.c        ****         case 2:
 109:main.c        ****             CutterPin1_Write(0);
 319              		.loc 1 109 0
 320 0042 0020     		movs	r0, #0
 321              	.LVL52:
 322 0044 FFF7FEFF 		bl	CutterPin1_Write
 323              	.LVL53:
 110:main.c        ****             CutterPin2_Write(1);
 324              		.loc 1 110 0
 325 0048 0120     		movs	r0, #1
 326 004a FFF7FEFF 		bl	CutterPin2_Write
 327              	.LVL54:
 111:main.c        ****             CutterPin3_Write(0);
 328              		.loc 1 111 0
 329 004e 0020     		movs	r0, #0
 330 0050 FFF7FEFF 		bl	CutterPin3_Write
 331              	.LVL55:
 112:main.c        ****             CutterPin4_Write(1);
 332              		.loc 1 112 0
 333 0054 0120     		movs	r0, #1
 334 0056 FFF7FEFF 		bl	CutterPin4_Write
 335              	.LVL56:
 113:main.c        ****             break;
 336              		.loc 1 113 0
 337 005a 08BD     		pop	{r3, pc}
 338              	.LVL57:
 339              	.L27:
 114:main.c        ****         case 3:
 115:main.c        ****             CutterPin1_Write(0);
 340              		.loc 1 115 0
ARM GAS  C:\Users\Haythem\AppData\Local\Temp\ccwgFMzW.s 			page 9


 341 005c 0020     		movs	r0, #0
 342              	.LVL58:
 343 005e FFF7FEFF 		bl	CutterPin1_Write
 344              	.LVL59:
 116:main.c        ****             CutterPin2_Write(1);
 345              		.loc 1 116 0
 346 0062 0120     		movs	r0, #1
 347 0064 FFF7FEFF 		bl	CutterPin2_Write
 348              	.LVL60:
 117:main.c        ****             CutterPin3_Write(1);
 349              		.loc 1 117 0
 350 0068 0120     		movs	r0, #1
 351 006a FFF7FEFF 		bl	CutterPin3_Write
 352              	.LVL61:
 118:main.c        ****             CutterPin4_Write(0);
 353              		.loc 1 118 0
 354 006e 0020     		movs	r0, #0
 355 0070 FFF7FEFF 		bl	CutterPin4_Write
 356              	.LVL62:
 357              	.L21:
 358 0074 08BD     		pop	{r3, pc}
 359              		.cfi_endproc
 360              	.LFE66:
 361              		.size	step_cutter_motor, .-step_cutter_motor
 362 0076 00BF     		.section	.text.cutter_motor,"ax",%progbits
 363              		.align	2
 364              		.global	cutter_motor
 365              		.thumb
 366              		.thumb_func
 367              		.type	cutter_motor, %function
 368              	cutter_motor:
 369              	.LFB67:
 119:main.c        ****             break;
 120:main.c        ****     }
 121:main.c        **** }
 122:main.c        **** 
 123:main.c        **** /* 
 124:main.c        **** ** Moves the cutter motor by the specified number of steps
 125:main.c        **** ** This method uses a timer to create a big enough delay between steps
 126:main.c        **** ** The timer has a 1 kHz frequency; by using counters, this allows to
 127:main.c        **** ** modulate the frequency as wanted. By default, the frequency is 100 Hz.
 128:main.c        **** */
 129:main.c        **** void cutter_motor(int steps_to_move) {
 370              		.loc 1 129 0
 371              		.cfi_startproc
 372              		@ args = 0, pretend = 0, frame = 0
 373              		@ frame_needed = 0, uses_anonymous_args = 0
 374              	.LVL63:
 375 0000 70B5     		push	{r4, r5, r6, lr}
 376              		.cfi_def_cfa_offset 16
 377              		.cfi_offset 4, -16
 378              		.cfi_offset 5, -12
 379              		.cfi_offset 6, -8
 380              		.cfi_offset 14, -4
 381 0002 0646     		mov	r6, r0
 382              	.LVL64:
 130:main.c        ****     int steps_left = steps_to_move;
ARM GAS  C:\Users\Haythem\AppData\Local\Temp\ccwgFMzW.s 			page 10


 383              		.loc 1 130 0
 384 0004 0446     		mov	r4, r0
 131:main.c        ****     int counter = 0;
 385              		.loc 1 131 0
 386 0006 0025     		movs	r5, #0
 132:main.c        ****     while (steps_left > 0) {
 387              		.loc 1 132 0
 388 0008 13E0     		b	.L30
 389              	.LVL65:
 390              	.L33:
 133:main.c        ****         if ((StepperMotorTimer_STATUS_TC & StepperMotorTimer_ReadStatusRegister()) != 0) {
 391              		.loc 1 133 0
 392 000a FFF7FEFF 		bl	StepperMotorTimer_ReadStatusRegister
 393              	.LVL66:
 394 000e 10F0800F 		tst	r0, #128
 395 0012 0ED0     		beq	.L30
 134:main.c        ****             counter++;
 396              		.loc 1 134 0
 397 0014 0135     		adds	r5, r5, #1
 398              	.LVL67:
 135:main.c        ****             if (counter == 5 * PERIOD) {
 399              		.loc 1 135 0
 400 0016 0A2D     		cmp	r5, #10
 401 0018 0BD1     		bne	.L30
 136:main.c        ****                 step_cutter_motor((steps_to_move - steps_left) % 4);
 402              		.loc 1 136 0
 403 001a 301B     		subs	r0, r6, r4
 404 001c 064B     		ldr	r3, .L35
 405 001e 1840     		ands	r0, r0, r3
 406 0020 03D5     		bpl	.L32
 407 0022 0138     		subs	r0, r0, #1
 408 0024 60F00300 		orn	r0, r0, #3
 409 0028 0130     		adds	r0, r0, #1
 410              	.L32:
 411 002a FFF7FEFF 		bl	step_cutter_motor
 412              	.LVL68:
 137:main.c        ****                 steps_left--;
 413              		.loc 1 137 0
 414 002e 013C     		subs	r4, r4, #1
 415              	.LVL69:
 138:main.c        ****                 counter = 0;
 416              		.loc 1 138 0
 417 0030 0025     		movs	r5, #0
 418              	.LVL70:
 419              	.L30:
 132:main.c        ****         if ((StepperMotorTimer_STATUS_TC & StepperMotorTimer_ReadStatusRegister()) != 0) {
 420              		.loc 1 132 0
 421 0032 002C     		cmp	r4, #0
 422 0034 E9DC     		bgt	.L33
 139:main.c        ****             }
 140:main.c        ****         }
 141:main.c        ****     }
 142:main.c        **** }
 423              		.loc 1 142 0
 424 0036 70BD     		pop	{r4, r5, r6, pc}
 425              	.LVL71:
 426              	.L36:
ARM GAS  C:\Users\Haythem\AppData\Local\Temp\ccwgFMzW.s 			page 11


 427              		.align	2
 428              	.L35:
 429 0038 03000080 		.word	-2147483645
 430              		.cfi_endproc
 431              	.LFE67:
 432              		.size	cutter_motor, .-cutter_motor
 433              		.section	.text.turn_cutter_motor,"ax",%progbits
 434              		.align	2
 435              		.global	turn_cutter_motor
 436              		.thumb
 437              		.thumb_func
 438              		.type	turn_cutter_motor, %function
 439              	turn_cutter_motor:
 440              	.LFB68:
 143:main.c        **** 
 144:main.c        **** /* 
 145:main.c        **** ** Moves the cutter motor by the specified number of rotations
 146:main.c        **** ** by using the measured step angle.
 147:main.c        **** */
 148:main.c        **** void turn_cutter_motor(int rotations) {
 441              		.loc 1 148 0
 442              		.cfi_startproc
 443              		@ args = 0, pretend = 0, frame = 0
 444              		@ frame_needed = 0, uses_anonymous_args = 0
 445              	.LVL72:
 446 0000 08B5     		push	{r3, lr}
 447              		.cfi_def_cfa_offset 8
 448              		.cfi_offset 3, -8
 449              		.cfi_offset 14, -4
 149:main.c        ****     cutter_motor((360 / STEP_ANGLE) * rotations);
 450              		.loc 1 149 0
 451 0002 FFF7FEFF 		bl	__aeabi_i2d
 452              	.LVL73:
 453 0006 0022     		movs	r2, #0
 454 0008 034B     		ldr	r3, .L39
 455 000a FFF7FEFF 		bl	__aeabi_dmul
 456              	.LVL74:
 457 000e FFF7FEFF 		bl	__aeabi_d2iz
 458              	.LVL75:
 459 0012 FFF7FEFF 		bl	cutter_motor
 460              	.LVL76:
 461 0016 08BD     		pop	{r3, pc}
 462              	.L40:
 463              		.align	2
 464              	.L39:
 465 0018 00006940 		.word	1080623104
 466              		.cfi_endproc
 467              	.LFE68:
 468              		.size	turn_cutter_motor, .-turn_cutter_motor
 469              		.section	.text.toggle_servo_position,"ax",%progbits
 470              		.align	2
 471              		.global	toggle_servo_position
 472              		.thumb
 473              		.thumb_func
 474              		.type	toggle_servo_position, %function
 475              	toggle_servo_position:
 476              	.LFB69:
ARM GAS  C:\Users\Haythem\AppData\Local\Temp\ccwgFMzW.s 			page 12


 150:main.c        **** }
 151:main.c        **** 
 152:main.c        **** /* 
 153:main.c        **** ** Changes the servomotor's position between cutting or stripping stance.
 154:main.c        **** */
 155:main.c        **** void toggle_servo_position() {
 477              		.loc 1 155 0
 478              		.cfi_startproc
 479              		@ args = 0, pretend = 0, frame = 0
 480              		@ frame_needed = 0, uses_anonymous_args = 0
 481 0000 08B5     		push	{r3, lr}
 482              		.cfi_def_cfa_offset 8
 483              		.cfi_offset 3, -8
 484              		.cfi_offset 14, -4
 156:main.c        ****     if (servo_position == SERVO_CUT) {
 485              		.loc 1 156 0
 486 0002 0D4B     		ldr	r3, .L45
 487 0004 1B68     		ldr	r3, [r3]
 488 0006 40F2D662 		movw	r2, #1750
 489 000a 9342     		cmp	r3, r2
 490 000c 04D1     		bne	.L42
 157:main.c        ****         servo_position = SERVO_STRIP;
 491              		.loc 1 157 0
 492 000e 40F62822 		movw	r2, #2600
 493 0012 094B     		ldr	r3, .L45
 494 0014 1A60     		str	r2, [r3]
 495 0016 07E0     		b	.L43
 496              	.L42:
 158:main.c        ****     } else if (servo_position == SERVO_STRIP) {
 497              		.loc 1 158 0
 498 0018 40F62822 		movw	r2, #2600
 499 001c 9342     		cmp	r3, r2
 500 001e 03D1     		bne	.L43
 159:main.c        ****         servo_position = SERVO_CUT;
 501              		.loc 1 159 0
 502 0020 40F2D662 		movw	r2, #1750
 503 0024 044B     		ldr	r3, .L45
 504 0026 1A60     		str	r2, [r3]
 505              	.L43:
 160:main.c        ****     }
 161:main.c        ****     PWM_WriteCompare(servo_position);
 506              		.loc 1 161 0
 507 0028 034B     		ldr	r3, .L45
 508 002a 1888     		ldrh	r0, [r3]
 509 002c FFF7FEFF 		bl	PWM_WriteCompare
 510              	.LVL77:
 162:main.c        ****     CyDelay(100);
 511              		.loc 1 162 0
 512 0030 6420     		movs	r0, #100
 513 0032 FFF7FEFF 		bl	CyDelay
 514              	.LVL78:
 515 0036 08BD     		pop	{r3, pc}
 516              	.L46:
 517              		.align	2
 518              	.L45:
 519 0038 00000000 		.word	.LANCHOR0
 520              		.cfi_endproc
ARM GAS  C:\Users\Haythem\AppData\Local\Temp\ccwgFMzW.s 			page 13


 521              	.LFE69:
 522              		.size	toggle_servo_position, .-toggle_servo_position
 523              		.section	.text.main,"ax",%progbits
 524              		.align	2
 525              		.global	main
 526              		.thumb
 527              		.thumb_func
 528              		.type	main, %function
 529              	main:
 530              	.LFB70:
 163:main.c        **** }
 164:main.c        **** 
 165:main.c        **** int main(void) {
 531              		.loc 1 165 0
 532              		.cfi_startproc
 533              		@ Volatile: function does not return.
 534              		@ args = 0, pretend = 0, frame = 0
 535              		@ frame_needed = 0, uses_anonymous_args = 0
 536 0000 08B5     		push	{r3, lr}
 537              		.cfi_def_cfa_offset 8
 538              		.cfi_offset 3, -8
 539              		.cfi_offset 14, -4
 166:main.c        ****     
 167:main.c        ****     CyGlobalIntEnable;
 540              		.loc 1 167 0
 541              		.syntax unified
 542              	@ 167 "main.c" 1
 543 0002 62B6     		CPSIE   i
 544              	@ 0 "" 2
 168:main.c        ****     StepperMotorTimer_Start();
 545              		.loc 1 168 0
 546              		.thumb
 547              		.syntax unified
 548 0004 FFF7FEFF 		bl	StepperMotorTimer_Start
 549              	.LVL79:
 169:main.c        ****     PWM_Start();
 550              		.loc 1 169 0
 551 0008 FFF7FEFF 		bl	PWM_Start
 552              	.LVL80:
 170:main.c        ****     PWM_WriteCompare(SERVO_CUT);
 553              		.loc 1 170 0
 554 000c 40F2D660 		movw	r0, #1750
 555 0010 FFF7FEFF 		bl	PWM_WriteCompare
 556              	.LVL81:
 557              	.L48:
 171:main.c        ****     
 172:main.c        ****     for(;;) {
 173:main.c        ****         CyDelay(1000);
 558              		.loc 1 173 0 discriminator 1
 559 0014 4FF47A70 		mov	r0, #1000
 560 0018 FFF7FEFF 		bl	CyDelay
 561              	.LVL82:
 174:main.c        ****         turn_feeder_motor(50);
 562              		.loc 1 174 0 discriminator 1
 563 001c 3220     		movs	r0, #50
 564 001e FFF7FEFF 		bl	turn_feeder_motor
 565              	.LVL83:
ARM GAS  C:\Users\Haythem\AppData\Local\Temp\ccwgFMzW.s 			page 14


 175:main.c        ****         CyDelay(100);
 566              		.loc 1 175 0 discriminator 1
 567 0022 6420     		movs	r0, #100
 568 0024 FFF7FEFF 		bl	CyDelay
 569              	.LVL84:
 176:main.c        ****         turn_cutter_motor(1);
 570              		.loc 1 176 0 discriminator 1
 571 0028 0120     		movs	r0, #1
 572 002a FFF7FEFF 		bl	turn_cutter_motor
 573              	.LVL85:
 177:main.c        ****         CyDelay(3000);
 574              		.loc 1 177 0 discriminator 1
 575 002e 40F6B830 		movw	r0, #3000
 576 0032 FFF7FEFF 		bl	CyDelay
 577              	.LVL86:
 578 0036 EDE7     		b	.L48
 579              		.cfi_endproc
 580              	.LFE70:
 581              		.size	main, .-main
 582              		.global	servo_position
 583              		.data
 584              		.align	2
 585              		.set	.LANCHOR0,. + 0
 586              		.type	servo_position, %object
 587              		.size	servo_position, 4
 588              	servo_position:
 589 0000 D6060000 		.word	1750
 590              		.text
 591              	.Letext0:
 592              		.file 2 "c:\\program files (x86)\\cypress\\psoc creator\\4.4\\psoc creator\\import\\gnu\\arm\\5.4.
 593              		.file 3 "c:\\program files (x86)\\cypress\\psoc creator\\4.4\\psoc creator\\import\\gnu\\arm\\5.4.
 594              		.file 4 "Generated_Source\\PSoC5/cytypes.h"
 595              		.file 5 "Generated_Source\\PSoC5/core_cm3.h"
 596              		.file 6 "Generated_Source\\PSoC5/FeederPin1.h"
 597              		.file 7 "Generated_Source\\PSoC5/FeederPin2.h"
 598              		.file 8 "Generated_Source\\PSoC5/FeederPin3.h"
 599              		.file 9 "Generated_Source\\PSoC5/FeederPin4.h"
 600              		.file 10 "Generated_Source\\PSoC5/StepperMotorTimer.h"
 601              		.file 11 "Generated_Source\\PSoC5/CutterPin1.h"
 602              		.file 12 "Generated_Source\\PSoC5/CutterPin2.h"
 603              		.file 13 "Generated_Source\\PSoC5/CutterPin3.h"
 604              		.file 14 "Generated_Source\\PSoC5/CutterPin4.h"
 605              		.file 15 "Generated_Source\\PSoC5/PWM.h"
 606              		.file 16 "Generated_Source\\PSoC5/CyLib.h"